; Function Attrs: mustprogress nounwind uwtable
define hidden void @_ZN20JvmtiEventController11env_disposeEP12JvmtiEnvBase(ptr noundef %0) local_unnamed_addr #3 align 2 {
  %2 = load i32, ptr @_ZN7Threads18_number_of_threadsE, align 4
  %3 = icmp eq i32 %2, 0
  br i1 %3, label %4, label %5

4:                                                ; preds = %1
  tail call void @_ZN27JvmtiEventControllerPrivate11env_disposeEP12JvmtiEnvBase(ptr noundef %0)
  br label %_ZN11MutexLockerD2Ev.exit

5:                                                ; preds = %1
  %6 = load ptr, ptr @JvmtiThreadState_lock, align 8
  %.not.i.i = icmp eq ptr %6, null
  br i1 %.not.i.i, label %_ZN11MutexLockerC2EP5MutexNS0_18SafepointCheckFlagE.exit.thread, label %7

_ZN11MutexLockerC2EP5MutexNS0_18SafepointCheckFlagE.exit.thread: ; preds = %5
  tail call void @_ZN27JvmtiEventControllerPrivate11env_disposeEP12JvmtiEnvBase(ptr noundef %0)
  br label %_ZN11MutexLockerD2Ev.exit

7:                                                ; preds = %5
  tail call void @_ZN5Mutex4lockEv(ptr noundef nonnull align 8 dereferenceable(104) %6) #15
  tail call void @_ZN27JvmtiEventControllerPrivate11env_disposeEP12JvmtiEnvBase(ptr noundef %0)
  tail call void @_ZN5Mutex6unlockEv(ptr noundef nonnull align 8 dereferenceable(104) %6) #15
  br label %_ZN11MutexLockerD2Ev.exit

_ZN11MutexLockerD2Ev.exit:                        ; preds = %7, %_ZN11MutexLockerC2EP5MutexNS0_18SafepointCheckFlagE.exit.thread, %4
  ret void
}